; Function Attrs: mustprogress uwtable
define void @_ZN2cv3MatC2ERKSt6vectorIiSaIiEEiRKNS_7Scalar_IdEE(ptr noundef nonnull align 8 dereferenceable(96) initializes((0, 64)) %0, ptr noundef nonnull readonly align 8 captures(none) dereferenceable(24) %1, i32 noundef %2, ptr noundef nonnull align 8 dereferenceable(32) %3) unnamed_addr #1 align 2 {
  store i32 1124007936, ptr %0, align 8, !tbaa !61
  %5 = getelementptr inbounds nuw i8, ptr %0, i64 4
  %6 = getelementptr inbounds nuw i8, ptr %0, i64 8
  %7 = getelementptr inbounds nuw i8, ptr %0, i64 64
  tail call void @llvm.memset.p0.i64(ptr noundef nonnull align 4 dereferenceable(60) %5, i8 0, i64 60, i1 false)
  store ptr %6, ptr %7, align 8, !tbaa !49
  %8 = getelementptr inbounds nuw i8, ptr %0, i64 72
  %9 = getelementptr inbounds nuw i8, ptr %0, i64 80
  store ptr %9, ptr %8, align 8, !tbaa !63
  %10 = getelementptr inbounds nuw i8, ptr %1, i64 8
  tail call void @llvm.memset.p0.i64(ptr noundef nonnull align 8 dereferenceable(16) %9, i8 0, i64 16, i1 false)
  %11 = load ptr, ptr %10, align 8, !tbaa !75
  %12 = load ptr, ptr %1, align 8, !tbaa !77
  %13 = ptrtoint ptr %11 to i64
  %14 = ptrtoint ptr %12 to i64
  %15 = sub i64 %13, %14
  %16 = lshr exact i64 %15, 2
  %17 = trunc i64 %16 to i32
  tail call void @_ZN2cv3Mat6createEiPKii(ptr noundef nonnull align 8 dereferenceable(96) %0, i32 noundef %17, ptr noundef %12, i32 noundef %2)
  %18 = tail call noundef nonnull align 8 dereferenceable(96) ptr @_ZN2cv3MataSERKNS_7Scalar_IdEE(ptr noundef nonnull align 8 dereferenceable(96) %0, ptr noundef nonnull align 8 dereferenceable(32) %3)
  ret void
}